; Function Attrs: mustprogress uwtable
define void @_ZN5faiss11IndexFlatL212sync_l2normsEv(ptr noundef nonnull align 8 dereferenceable(96) %0) local_unnamed_addr #2 align 2 personality ptr @__gxx_personality_v0 {
  %2 = getelementptr inbounds nuw i8, ptr %0, i64 72
  %3 = getelementptr inbounds nuw i8, ptr %0, i64 16
  %4 = load i64, ptr %3, align 8, !tbaa !37
  %5 = getelementptr inbounds nuw i8, ptr %0, i64 80
  %6 = load ptr, ptr %5, align 8, !tbaa !97
  %7 = load ptr, ptr %2, align 8, !tbaa !65
  %8 = ptrtoint ptr %6 to i64
  %9 = ptrtoint ptr %7 to i64
  %10 = sub i64 %8, %9
  %11 = ashr exact i64 %10, 2
  %12 = icmp ugt i64 %4, %11
  br i1 %12, label %13, label %15

13:                                               ; preds = %1
  %14 = sub nuw i64 %4, %11
  tail call void @_ZNSt6vectorIfSaIfEE17_M_default_appendEm(ptr noundef nonnull align 8 dereferenceable(24) %2, i64 noundef %14)
  %.pre = load ptr, ptr %2, align 8, !tbaa !65
  %.pre1 = load i64, ptr %3, align 8, !tbaa !37
  br label %_ZNSt6vectorIfSaIfEE6resizeEm.exit

15:                                               ; preds = %1
  %16 = icmp ult i64 %4, %11
  br i1 %16, label %17, label %_ZNSt6vectorIfSaIfEE6resizeEm.exit

17:                                               ; preds = %15
  %18 = getelementptr inbounds nuw float, ptr %7, i64 %4
  %.not.i.i = icmp eq ptr %6, %18
  br i1 %.not.i.i, label %_ZNSt6vectorIfSaIfEE6resizeEm.exit, label %19

19:                                               ; preds = %17
  store ptr %18, ptr %5, align 8, !tbaa !97
  br label %_ZNSt6vectorIfSaIfEE6resizeEm.exit

_ZNSt6vectorIfSaIfEE6resizeEm.exit:               ; preds = %13, %15, %17, %19
  %20 = phi i64 [ %.pre1, %13 ], [ %4, %15 ], [ %4, %17 ], [ %4, %19 ]
  %21 = phi ptr [ %.pre, %13 ], [ %7, %15 ], [ %7, %17 ], [ %7, %19 ]
  %22 = getelementptr inbounds nuw i8, ptr %0, i64 48
  %23 = load ptr, ptr %22, align 8, !tbaa !7
  %24 = getelementptr inbounds nuw i8, ptr %0, i64 8
  %25 = load i32, ptr %24, align 8, !tbaa !36
  %26 = sext i32 %25 to i64
  tail call void @_ZN5faiss16fvec_norms_L2sqrEPfPKfmm(ptr noundef %21, ptr noundef %23, i64 noundef %26, i64 noundef %20)
  ret void
}